; Function Attrs: nounwind sspstrong uwtable
define internal noundef zeroext i1 @qobject_input_type_number_keyval(ptr noundef captures(none) %v, ptr noundef %name, ptr noundef writeonly captures(none) %obj, ptr noundef %errp) #0 {
entry:
  %val = alloca double, align 8
  %call1 = tail call fastcc ptr @qobject_input_get_keyval(ptr noundef %v, ptr noundef %name, ptr noundef %errp)
  %tobool.not = icmp eq ptr %call1, null
  br i1 %tobool.not, label %return, label %if.end

if.end:                                           ; preds = %entry
  %call2 = call i32 @qemu_strtod_finite(ptr noundef nonnull %call1, ptr noundef null, ptr noundef nonnull %val) #8
  %tobool3.not = icmp eq i32 %call2, 0
  br i1 %tobool3.not, label %if.end6, label %if.then4

if.then4:                                         ; preds = %if.end
  %call.i = call fastcc ptr @full_name_nth(ptr noundef %v, ptr noundef %name, i32 noundef 0)
  call void (ptr, ptr, i32, ptr, ptr, ...) @error_setg_internal(ptr noundef %errp, ptr noundef nonnull @.str.1, i32 noundef 591, ptr noundef nonnull @__func__.qobject_input_type_number_keyval, ptr noundef nonnull @.str.3, ptr noundef %call.i, ptr noundef nonnull @.str.34) #8
  br label %return

if.end6:                                          ; preds = %if.end
  %0 = load double, ptr %val, align 8
  store double %0, ptr %obj, align 8
  br label %return

return:                                           ; preds = %entry, %if.end6, %if.then4
  %retval.0 = phi i1 [ false, %if.then4 ], [ true, %if.end6 ], [ false, %entry ]
  ret i1 %retval.0
}